ARM GAS  C:\Users\Jose\AppData\Local\Temp\ccBDvfGc.s 			page 1


   1              		.cpu cortex-m4
   2              		.arch armv7e-m
   3              		.fpu fpv4-sp-d16
   4              		.eabi_attribute 27, 1
   5              		.eabi_attribute 28, 1
   6              		.eabi_attribute 20, 1
   7              		.eabi_attribute 21, 1
   8              		.eabi_attribute 23, 3
   9              		.eabi_attribute 24, 1
  10              		.eabi_attribute 25, 1
  11              		.eabi_attribute 26, 1
  12              		.eabi_attribute 30, 1
  13              		.eabi_attribute 34, 1
  14              		.eabi_attribute 18, 4
  15              		.file	"main.c"
  16              		.text
  17              	.Ltext0:
  18              		.cfi_sections	.debug_frame
  19              		.file 1 "Core/Src/main.c"
  20              		.section	.text.MX_GPIO_Init,"ax",%progbits
  21              		.align	1
  22              		.syntax unified
  23              		.thumb
  24              		.thumb_func
  26              	MX_GPIO_Init:
  27              	.LFB134:
   1:Core/Src/main.c **** /* USER CODE BEGIN Header */
   2:Core/Src/main.c **** /**
   3:Core/Src/main.c ****   ******************************************************************************
   4:Core/Src/main.c ****   * @file           : main.c
   5:Core/Src/main.c ****   * @brief          : Main program body
   6:Core/Src/main.c ****   ******************************************************************************
   7:Core/Src/main.c ****   * @attention
   8:Core/Src/main.c ****   *
   9:Core/Src/main.c ****   * Copyright (c) 2023 STMicroelectronics.
  10:Core/Src/main.c ****   * All rights reserved.
  11:Core/Src/main.c ****   *
  12:Core/Src/main.c ****   * This software is licensed under terms that can be found in the LICENSE file
  13:Core/Src/main.c ****   * in the root directory of this software component.
  14:Core/Src/main.c ****   * If no LICENSE file comes with this software, it is provided AS-IS.
  15:Core/Src/main.c ****   *
  16:Core/Src/main.c ****   ******************************************************************************
  17:Core/Src/main.c ****   */
  18:Core/Src/main.c **** /* USER CODE END Header */
  19:Core/Src/main.c **** /* Includes ------------------------------------------------------------------*/
  20:Core/Src/main.c **** #include "main.h"
  21:Core/Src/main.c **** 
  22:Core/Src/main.c **** /* Private includes ----------------------------------------------------------*/
  23:Core/Src/main.c **** /* USER CODE BEGIN Includes */
  24:Core/Src/main.c **** 
  25:Core/Src/main.c **** /* USER CODE END Includes */
  26:Core/Src/main.c **** 
  27:Core/Src/main.c **** /* Private typedef -----------------------------------------------------------*/
  28:Core/Src/main.c **** /* USER CODE BEGIN PTD */
  29:Core/Src/main.c **** 
  30:Core/Src/main.c **** /* USER CODE END PTD */
  31:Core/Src/main.c **** 
ARM GAS  C:\Users\Jose\AppData\Local\Temp\ccBDvfGc.s 			page 2


  32:Core/Src/main.c **** /* Private define ------------------------------------------------------------*/
  33:Core/Src/main.c **** /* USER CODE BEGIN PD */
  34:Core/Src/main.c **** /* USER CODE END PD */
  35:Core/Src/main.c **** 
  36:Core/Src/main.c **** /* Private macro -------------------------------------------------------------*/
  37:Core/Src/main.c **** /* USER CODE BEGIN PM */
  38:Core/Src/main.c **** 
  39:Core/Src/main.c **** /* USER CODE END PM */
  40:Core/Src/main.c **** 
  41:Core/Src/main.c **** /* Private variables ---------------------------------------------------------*/
  42:Core/Src/main.c **** CRC_HandleTypeDef hcrc;
  43:Core/Src/main.c **** 
  44:Core/Src/main.c **** UART_HandleTypeDef huart2;
  45:Core/Src/main.c **** 
  46:Core/Src/main.c **** /* USER CODE BEGIN PV */
  47:Core/Src/main.c **** 
  48:Core/Src/main.c **** /* USER CODE END PV */
  49:Core/Src/main.c **** 
  50:Core/Src/main.c **** /* Private function prototypes -----------------------------------------------*/
  51:Core/Src/main.c **** void SystemClock_Config(void);
  52:Core/Src/main.c **** static void MX_GPIO_Init(void);
  53:Core/Src/main.c **** static void MX_CRC_Init(void);
  54:Core/Src/main.c **** static void MX_USART2_UART_Init(void);
  55:Core/Src/main.c **** /* USER CODE BEGIN PFP */
  56:Core/Src/main.c **** 
  57:Core/Src/main.c **** /* USER CODE END PFP */
  58:Core/Src/main.c **** 
  59:Core/Src/main.c **** /* Private user code ---------------------------------------------------------*/
  60:Core/Src/main.c **** /* USER CODE BEGIN 0 */
  61:Core/Src/main.c **** 
  62:Core/Src/main.c **** /* USER CODE END 0 */
  63:Core/Src/main.c **** 
  64:Core/Src/main.c **** /**
  65:Core/Src/main.c ****   * @brief  The application entry point.
  66:Core/Src/main.c ****   * @retval int
  67:Core/Src/main.c ****   */
  68:Core/Src/main.c **** int main(void)
  69:Core/Src/main.c **** {
  70:Core/Src/main.c ****   /* USER CODE BEGIN 1 */
  71:Core/Src/main.c **** 
  72:Core/Src/main.c ****   /* USER CODE END 1 */
  73:Core/Src/main.c **** 
  74:Core/Src/main.c ****   /* MCU Configuration--------------------------------------------------------*/
  75:Core/Src/main.c **** 
  76:Core/Src/main.c ****   /* Reset of all peripherals, Initializes the Flash interface and the Systick. */
  77:Core/Src/main.c ****   HAL_Init();
  78:Core/Src/main.c **** 
  79:Core/Src/main.c ****   /* USER CODE BEGIN Init */
  80:Core/Src/main.c **** 
  81:Core/Src/main.c ****   /* USER CODE END Init */
  82:Core/Src/main.c **** 
  83:Core/Src/main.c ****   /* Configure the system clock */
  84:Core/Src/main.c ****   SystemClock_Config();
  85:Core/Src/main.c **** 
  86:Core/Src/main.c ****   /* USER CODE BEGIN SysInit */
  87:Core/Src/main.c **** 
  88:Core/Src/main.c ****   /* USER CODE END SysInit */
ARM GAS  C:\Users\Jose\AppData\Local\Temp\ccBDvfGc.s 			page 3


  89:Core/Src/main.c **** 
  90:Core/Src/main.c ****   /* Initialize all configured peripherals */
  91:Core/Src/main.c ****   MX_GPIO_Init();
  92:Core/Src/main.c ****   MX_CRC_Init();
  93:Core/Src/main.c ****   MX_USART2_UART_Init();
  94:Core/Src/main.c ****   /* USER CODE BEGIN 2 */
  95:Core/Src/main.c **** 
  96:Core/Src/main.c ****   /* USER CODE END 2 */
  97:Core/Src/main.c **** 
  98:Core/Src/main.c ****   /* Infinite loop */
  99:Core/Src/main.c ****   /* USER CODE BEGIN WHILE */
 100:Core/Src/main.c ****   while (1)
 101:Core/Src/main.c ****   {
 102:Core/Src/main.c ****     HAL_GPIO_TogglePin(LD2_GPIO_Port, LD2_Pin);
 103:Core/Src/main.c ****     HAL_Delay(100);
 104:Core/Src/main.c ****   }
 105:Core/Src/main.c ****   /* USER CODE END 3 */
 106:Core/Src/main.c **** }
 107:Core/Src/main.c **** 
 108:Core/Src/main.c **** /**
 109:Core/Src/main.c ****   * @brief System Clock Configuration
 110:Core/Src/main.c ****   * @retval None
 111:Core/Src/main.c ****   */
 112:Core/Src/main.c **** void SystemClock_Config(void)
 113:Core/Src/main.c **** {
 114:Core/Src/main.c ****   RCC_OscInitTypeDef RCC_OscInitStruct = {0};
 115:Core/Src/main.c ****   RCC_ClkInitTypeDef RCC_ClkInitStruct = {0};
 116:Core/Src/main.c **** 
 117:Core/Src/main.c ****   /** Configure the main internal regulator output voltage
 118:Core/Src/main.c ****   */
 119:Core/Src/main.c ****   __HAL_RCC_PWR_CLK_ENABLE();
 120:Core/Src/main.c ****   __HAL_PWR_VOLTAGESCALING_CONFIG(PWR_REGULATOR_VOLTAGE_SCALE2);
 121:Core/Src/main.c **** 
 122:Core/Src/main.c ****   /** Initializes the RCC Oscillators according to the specified parameters
 123:Core/Src/main.c ****   * in the RCC_OscInitTypeDef structure.
 124:Core/Src/main.c ****   */
 125:Core/Src/main.c ****   RCC_OscInitStruct.OscillatorType = RCC_OSCILLATORTYPE_HSI;
 126:Core/Src/main.c ****   RCC_OscInitStruct.HSIState = RCC_HSI_ON;
 127:Core/Src/main.c ****   RCC_OscInitStruct.HSICalibrationValue = RCC_HSICALIBRATION_DEFAULT;
 128:Core/Src/main.c ****   RCC_OscInitStruct.PLL.PLLState = RCC_PLL_ON;
 129:Core/Src/main.c ****   RCC_OscInitStruct.PLL.PLLSource = RCC_PLLSOURCE_HSI;
 130:Core/Src/main.c ****   RCC_OscInitStruct.PLL.PLLM = 8;
 131:Core/Src/main.c ****   RCC_OscInitStruct.PLL.PLLN = 84;
 132:Core/Src/main.c ****   RCC_OscInitStruct.PLL.PLLP = RCC_PLLP_DIV2;
 133:Core/Src/main.c ****   RCC_OscInitStruct.PLL.PLLQ = 7;
 134:Core/Src/main.c ****   if (HAL_RCC_OscConfig(&RCC_OscInitStruct) != HAL_OK)
 135:Core/Src/main.c ****   {
 136:Core/Src/main.c ****     Error_Handler();
 137:Core/Src/main.c ****   }
 138:Core/Src/main.c **** 
 139:Core/Src/main.c ****   /** Initializes the CPU, AHB and APB buses clocks
 140:Core/Src/main.c ****   */
 141:Core/Src/main.c ****   RCC_ClkInitStruct.ClockType = RCC_CLOCKTYPE_HCLK|RCC_CLOCKTYPE_SYSCLK
 142:Core/Src/main.c ****                               |RCC_CLOCKTYPE_PCLK1|RCC_CLOCKTYPE_PCLK2;
 143:Core/Src/main.c ****   RCC_ClkInitStruct.SYSCLKSource = RCC_SYSCLKSOURCE_PLLCLK;
 144:Core/Src/main.c ****   RCC_ClkInitStruct.AHBCLKDivider = RCC_SYSCLK_DIV1;
 145:Core/Src/main.c ****   RCC_ClkInitStruct.APB1CLKDivider = RCC_HCLK_DIV2;
ARM GAS  C:\Users\Jose\AppData\Local\Temp\ccBDvfGc.s 			page 4


 146:Core/Src/main.c ****   RCC_ClkInitStruct.APB2CLKDivider = RCC_HCLK_DIV1;
 147:Core/Src/main.c **** 
 148:Core/Src/main.c ****   if (HAL_RCC_ClockConfig(&RCC_ClkInitStruct, FLASH_LATENCY_2) != HAL_OK)
 149:Core/Src/main.c ****   {
 150:Core/Src/main.c ****     Error_Handler();
 151:Core/Src/main.c ****   }
 152:Core/Src/main.c **** }
 153:Core/Src/main.c **** 
 154:Core/Src/main.c **** /**
 155:Core/Src/main.c ****   * @brief CRC Initialization Function
 156:Core/Src/main.c ****   * @param None
 157:Core/Src/main.c ****   * @retval None
 158:Core/Src/main.c ****   */
 159:Core/Src/main.c **** static void MX_CRC_Init(void)
 160:Core/Src/main.c **** {
 161:Core/Src/main.c **** 
 162:Core/Src/main.c ****   /* USER CODE BEGIN CRC_Init 0 */
 163:Core/Src/main.c **** 
 164:Core/Src/main.c ****   /* USER CODE END CRC_Init 0 */
 165:Core/Src/main.c **** 
 166:Core/Src/main.c ****   /* USER CODE BEGIN CRC_Init 1 */
 167:Core/Src/main.c **** 
 168:Core/Src/main.c ****   /* USER CODE END CRC_Init 1 */
 169:Core/Src/main.c ****   hcrc.Instance = CRC;
 170:Core/Src/main.c ****   if (HAL_CRC_Init(&hcrc) != HAL_OK)
 171:Core/Src/main.c ****   {
 172:Core/Src/main.c ****     Error_Handler();
 173:Core/Src/main.c ****   }
 174:Core/Src/main.c ****   /* USER CODE BEGIN CRC_Init 2 */
 175:Core/Src/main.c **** 
 176:Core/Src/main.c ****   /* USER CODE END CRC_Init 2 */
 177:Core/Src/main.c **** 
 178:Core/Src/main.c **** }
 179:Core/Src/main.c **** 
 180:Core/Src/main.c **** /**
 181:Core/Src/main.c ****   * @brief USART2 Initialization Function
 182:Core/Src/main.c ****   * @param None
 183:Core/Src/main.c ****   * @retval None
 184:Core/Src/main.c ****   */
 185:Core/Src/main.c **** static void MX_USART2_UART_Init(void)
 186:Core/Src/main.c **** {
 187:Core/Src/main.c **** 
 188:Core/Src/main.c ****   /* USER CODE BEGIN USART2_Init 0 */
 189:Core/Src/main.c **** 
 190:Core/Src/main.c ****   /* USER CODE END USART2_Init 0 */
 191:Core/Src/main.c **** 
 192:Core/Src/main.c ****   /* USER CODE BEGIN USART2_Init 1 */
 193:Core/Src/main.c **** 
 194:Core/Src/main.c ****   /* USER CODE END USART2_Init 1 */
 195:Core/Src/main.c ****   huart2.Instance = USART2;
 196:Core/Src/main.c ****   huart2.Init.BaudRate = 115200;
 197:Core/Src/main.c ****   huart2.Init.WordLength = UART_WORDLENGTH_8B;
 198:Core/Src/main.c ****   huart2.Init.StopBits = UART_STOPBITS_1;
 199:Core/Src/main.c ****   huart2.Init.Parity = UART_PARITY_NONE;
 200:Core/Src/main.c ****   huart2.Init.Mode = UART_MODE_TX_RX;
 201:Core/Src/main.c ****   huart2.Init.HwFlowCtl = UART_HWCONTROL_NONE;
 202:Core/Src/main.c ****   huart2.Init.OverSampling = UART_OVERSAMPLING_16;
ARM GAS  C:\Users\Jose\AppData\Local\Temp\ccBDvfGc.s 			page 5


 203:Core/Src/main.c ****   if (HAL_UART_Init(&huart2) != HAL_OK)
 204:Core/Src/main.c ****   {
 205:Core/Src/main.c ****     Error_Handler();
 206:Core/Src/main.c ****   }
 207:Core/Src/main.c ****   /* USER CODE BEGIN USART2_Init 2 */
 208:Core/Src/main.c **** 
 209:Core/Src/main.c ****   /* USER CODE END USART2_Init 2 */
 210:Core/Src/main.c **** 
 211:Core/Src/main.c **** }
 212:Core/Src/main.c **** 
 213:Core/Src/main.c **** /**
 214:Core/Src/main.c ****   * @brief GPIO Initialization Function
 215:Core/Src/main.c ****   * @param None
 216:Core/Src/main.c ****   * @retval None
 217:Core/Src/main.c ****   */
 218:Core/Src/main.c **** static void MX_GPIO_Init(void)
 219:Core/Src/main.c **** {
  28              		.loc 1 219 1 view -0
  29              		.cfi_startproc
  30              		@ args = 0, pretend = 0, frame = 40
  31              		@ frame_needed = 0, uses_anonymous_args = 0
  32 0000 30B5     		push	{r4, r5, lr}
  33              	.LCFI0:
  34              		.cfi_def_cfa_offset 12
  35              		.cfi_offset 4, -12
  36              		.cfi_offset 5, -8
  37              		.cfi_offset 14, -4
  38 0002 8BB0     		sub	sp, sp, #44
  39              	.LCFI1:
  40              		.cfi_def_cfa_offset 56
 220:Core/Src/main.c ****   GPIO_InitTypeDef GPIO_InitStruct = {0};
  41              		.loc 1 220 3 view .LVU1
  42              		.loc 1 220 20 is_stmt 0 view .LVU2
  43 0004 0024     		movs	r4, #0
  44 0006 0594     		str	r4, [sp, #20]
  45 0008 0694     		str	r4, [sp, #24]
  46 000a 0794     		str	r4, [sp, #28]
  47 000c 0894     		str	r4, [sp, #32]
  48 000e 0994     		str	r4, [sp, #36]
 221:Core/Src/main.c **** 
 222:Core/Src/main.c ****   /* GPIO Ports Clock Enable */
 223:Core/Src/main.c ****   __HAL_RCC_GPIOC_CLK_ENABLE();
  49              		.loc 1 223 3 is_stmt 1 view .LVU3
  50              	.LBB4:
  51              		.loc 1 223 3 view .LVU4
  52 0010 0194     		str	r4, [sp, #4]
  53              		.loc 1 223 3 view .LVU5
  54 0012 224B     		ldr	r3, .L3
  55 0014 1A6B     		ldr	r2, [r3, #48]
  56 0016 42F00402 		orr	r2, r2, #4
  57 001a 1A63     		str	r2, [r3, #48]
  58              		.loc 1 223 3 view .LVU6
  59 001c 1A6B     		ldr	r2, [r3, #48]
  60 001e 02F00402 		and	r2, r2, #4
  61 0022 0192     		str	r2, [sp, #4]
  62              		.loc 1 223 3 view .LVU7
  63 0024 019A     		ldr	r2, [sp, #4]
ARM GAS  C:\Users\Jose\AppData\Local\Temp\ccBDvfGc.s 			page 6


  64              	.LBE4:
  65              		.loc 1 223 3 view .LVU8
 224:Core/Src/main.c ****   __HAL_RCC_GPIOH_CLK_ENABLE();
  66              		.loc 1 224 3 view .LVU9
  67              	.LBB5:
  68              		.loc 1 224 3 view .LVU10
  69 0026 0294     		str	r4, [sp, #8]
  70              		.loc 1 224 3 view .LVU11
  71 0028 1A6B     		ldr	r2, [r3, #48]
  72 002a 42F08002 		orr	r2, r2, #128
  73 002e 1A63     		str	r2, [r3, #48]
  74              		.loc 1 224 3 view .LVU12
  75 0030 1A6B     		ldr	r2, [r3, #48]
  76 0032 02F08002 		and	r2, r2, #128
  77 0036 0292     		str	r2, [sp, #8]
  78              		.loc 1 224 3 view .LVU13
  79 0038 029A     		ldr	r2, [sp, #8]
  80              	.LBE5:
  81              		.loc 1 224 3 view .LVU14
 225:Core/Src/main.c ****   __HAL_RCC_GPIOA_CLK_ENABLE();
  82              		.loc 1 225 3 view .LVU15
  83              	.LBB6:
  84              		.loc 1 225 3 view .LVU16
  85 003a 0394     		str	r4, [sp, #12]
  86              		.loc 1 225 3 view .LVU17
  87 003c 1A6B     		ldr	r2, [r3, #48]
  88 003e 42F00102 		orr	r2, r2, #1
  89 0042 1A63     		str	r2, [r3, #48]
  90              		.loc 1 225 3 view .LVU18
  91 0044 1A6B     		ldr	r2, [r3, #48]
  92 0046 02F00102 		and	r2, r2, #1
  93 004a 0392     		str	r2, [sp, #12]
  94              		.loc 1 225 3 view .LVU19
  95 004c 039A     		ldr	r2, [sp, #12]
  96              	.LBE6:
  97              		.loc 1 225 3 view .LVU20
 226:Core/Src/main.c ****   __HAL_RCC_GPIOB_CLK_ENABLE();
  98              		.loc 1 226 3 view .LVU21
  99              	.LBB7:
 100              		.loc 1 226 3 view .LVU22
 101 004e 0494     		str	r4, [sp, #16]
 102              		.loc 1 226 3 view .LVU23
 103 0050 1A6B     		ldr	r2, [r3, #48]
 104 0052 42F00202 		orr	r2, r2, #2
 105 0056 1A63     		str	r2, [r3, #48]
 106              		.loc 1 226 3 view .LVU24
 107 0058 1B6B     		ldr	r3, [r3, #48]
 108 005a 03F00203 		and	r3, r3, #2
 109 005e 0493     		str	r3, [sp, #16]
 110              		.loc 1 226 3 view .LVU25
 111 0060 049B     		ldr	r3, [sp, #16]
 112              	.LBE7:
 113              		.loc 1 226 3 view .LVU26
 227:Core/Src/main.c **** 
 228:Core/Src/main.c ****   /*Configure GPIO pin Output Level */
 229:Core/Src/main.c ****   HAL_GPIO_WritePin(LD2_GPIO_Port, LD2_Pin, GPIO_PIN_SET);
 114              		.loc 1 229 3 view .LVU27
ARM GAS  C:\Users\Jose\AppData\Local\Temp\ccBDvfGc.s 			page 7


 115 0062 0F4D     		ldr	r5, .L3+4
 116 0064 0122     		movs	r2, #1
 117 0066 2021     		movs	r1, #32
 118 0068 2846     		mov	r0, r5
 119 006a FFF7FEFF 		bl	HAL_GPIO_WritePin
 120              	.LVL0:
 230:Core/Src/main.c **** 
 231:Core/Src/main.c ****   /*Configure GPIO pin : B1_Pin */
 232:Core/Src/main.c ****   GPIO_InitStruct.Pin = B1_Pin;
 121              		.loc 1 232 3 view .LVU28
 122              		.loc 1 232 23 is_stmt 0 view .LVU29
 123 006e 4FF40053 		mov	r3, #8192
 124 0072 0593     		str	r3, [sp, #20]
 233:Core/Src/main.c ****   GPIO_InitStruct.Mode = GPIO_MODE_IT_FALLING;
 125              		.loc 1 233 3 is_stmt 1 view .LVU30
 126              		.loc 1 233 24 is_stmt 0 view .LVU31
 127 0074 4FF40413 		mov	r3, #2162688
 128 0078 0693     		str	r3, [sp, #24]
 234:Core/Src/main.c ****   GPIO_InitStruct.Pull = GPIO_NOPULL;
 129              		.loc 1 234 3 is_stmt 1 view .LVU32
 130              		.loc 1 234 24 is_stmt 0 view .LVU33
 131 007a 0794     		str	r4, [sp, #28]
 235:Core/Src/main.c ****   HAL_GPIO_Init(B1_GPIO_Port, &GPIO_InitStruct);
 132              		.loc 1 235 3 is_stmt 1 view .LVU34
 133 007c 05A9     		add	r1, sp, #20
 134 007e 0948     		ldr	r0, .L3+8
 135 0080 FFF7FEFF 		bl	HAL_GPIO_Init
 136              	.LVL1:
 236:Core/Src/main.c **** 
 237:Core/Src/main.c ****   /*Configure GPIO pin : LD2_Pin */
 238:Core/Src/main.c ****   GPIO_InitStruct.Pin = LD2_Pin;
 137              		.loc 1 238 3 view .LVU35
 138              		.loc 1 238 23 is_stmt 0 view .LVU36
 139 0084 2023     		movs	r3, #32
 140 0086 0593     		str	r3, [sp, #20]
 239:Core/Src/main.c ****   GPIO_InitStruct.Mode = GPIO_MODE_OUTPUT_PP;
 141              		.loc 1 239 3 is_stmt 1 view .LVU37
 142              		.loc 1 239 24 is_stmt 0 view .LVU38
 143 0088 0123     		movs	r3, #1
 144 008a 0693     		str	r3, [sp, #24]
 240:Core/Src/main.c ****   GPIO_InitStruct.Pull = GPIO_NOPULL;
 145              		.loc 1 240 3 is_stmt 1 view .LVU39
 146              		.loc 1 240 24 is_stmt 0 view .LVU40
 147 008c 0794     		str	r4, [sp, #28]
 241:Core/Src/main.c ****   GPIO_InitStruct.Speed = GPIO_SPEED_FREQ_LOW;
 148              		.loc 1 241 3 is_stmt 1 view .LVU41
 149              		.loc 1 241 25 is_stmt 0 view .LVU42
 150 008e 0894     		str	r4, [sp, #32]
 242:Core/Src/main.c ****   HAL_GPIO_Init(LD2_GPIO_Port, &GPIO_InitStruct);
 151              		.loc 1 242 3 is_stmt 1 view .LVU43
 152 0090 05A9     		add	r1, sp, #20
 153 0092 2846     		mov	r0, r5
 154 0094 FFF7FEFF 		bl	HAL_GPIO_Init
 155              	.LVL2:
 243:Core/Src/main.c **** 
 244:Core/Src/main.c **** }
 156              		.loc 1 244 1 is_stmt 0 view .LVU44
ARM GAS  C:\Users\Jose\AppData\Local\Temp\ccBDvfGc.s 			page 8


 157 0098 0BB0     		add	sp, sp, #44
 158              	.LCFI2:
 159              		.cfi_def_cfa_offset 12
 160              		@ sp needed
 161 009a 30BD     		pop	{r4, r5, pc}
 162              	.L4:
 163              		.align	2
 164              	.L3:
 165 009c 00380240 		.word	1073887232
 166 00a0 00000240 		.word	1073872896
 167 00a4 00080240 		.word	1073874944
 168              		.cfi_endproc
 169              	.LFE134:
 171              		.section	.text.Error_Handler,"ax",%progbits
 172              		.align	1
 173              		.global	Error_Handler
 174              		.syntax unified
 175              		.thumb
 176              		.thumb_func
 178              	Error_Handler:
 179              	.LFB135:
 245:Core/Src/main.c **** 
 246:Core/Src/main.c **** /* USER CODE BEGIN 4 */
 247:Core/Src/main.c **** 
 248:Core/Src/main.c **** /* USER CODE END 4 */
 249:Core/Src/main.c **** 
 250:Core/Src/main.c **** /**
 251:Core/Src/main.c ****   * @brief  This function is executed in case of error occurrence.
 252:Core/Src/main.c ****   * @retval None
 253:Core/Src/main.c ****   */
 254:Core/Src/main.c **** void Error_Handler(void)
 255:Core/Src/main.c **** {
 180              		.loc 1 255 1 is_stmt 1 view -0
 181              		.cfi_startproc
 182              		@ Volatile: function does not return.
 183              		@ args = 0, pretend = 0, frame = 0
 184              		@ frame_needed = 0, uses_anonymous_args = 0
 185              		@ link register save eliminated.
 256:Core/Src/main.c ****   /* USER CODE BEGIN Error_Handler_Debug */
 257:Core/Src/main.c ****   /* User can add his own implementation to report the HAL error return state */
 258:Core/Src/main.c ****   __disable_irq();
 186              		.loc 1 258 3 view .LVU46
 187              	.LBB8:
 188              	.LBI8:
 189              		.file 2 "Drivers/CMSIS/Include/cmsis_gcc.h"
   1:Drivers/CMSIS/Include/cmsis_gcc.h **** /**************************************************************************//**
   2:Drivers/CMSIS/Include/cmsis_gcc.h ****  * @file     cmsis_gcc.h
   3:Drivers/CMSIS/Include/cmsis_gcc.h ****  * @brief    CMSIS compiler GCC header file
   4:Drivers/CMSIS/Include/cmsis_gcc.h ****  * @version  V5.0.4
   5:Drivers/CMSIS/Include/cmsis_gcc.h ****  * @date     09. April 2018
   6:Drivers/CMSIS/Include/cmsis_gcc.h ****  ******************************************************************************/
   7:Drivers/CMSIS/Include/cmsis_gcc.h **** /*
   8:Drivers/CMSIS/Include/cmsis_gcc.h ****  * Copyright (c) 2009-2018 Arm Limited. All rights reserved.
   9:Drivers/CMSIS/Include/cmsis_gcc.h ****  *
  10:Drivers/CMSIS/Include/cmsis_gcc.h ****  * SPDX-License-Identifier: Apache-2.0
  11:Drivers/CMSIS/Include/cmsis_gcc.h ****  *
  12:Drivers/CMSIS/Include/cmsis_gcc.h ****  * Licensed under the Apache License, Version 2.0 (the License); you may
ARM GAS  C:\Users\Jose\AppData\Local\Temp\ccBDvfGc.s 			page 9


  13:Drivers/CMSIS/Include/cmsis_gcc.h ****  * not use this file except in compliance with the License.
  14:Drivers/CMSIS/Include/cmsis_gcc.h ****  * You may obtain a copy of the License at
  15:Drivers/CMSIS/Include/cmsis_gcc.h ****  *
  16:Drivers/CMSIS/Include/cmsis_gcc.h ****  * www.apache.org/licenses/LICENSE-2.0
  17:Drivers/CMSIS/Include/cmsis_gcc.h ****  *
  18:Drivers/CMSIS/Include/cmsis_gcc.h ****  * Unless required by applicable law or agreed to in writing, software
  19:Drivers/CMSIS/Include/cmsis_gcc.h ****  * distributed under the License is distributed on an AS IS BASIS, WITHOUT
  20:Drivers/CMSIS/Include/cmsis_gcc.h ****  * WARRANTIES OR CONDITIONS OF ANY KIND, either express or implied.
  21:Drivers/CMSIS/Include/cmsis_gcc.h ****  * See the License for the specific language governing permissions and
  22:Drivers/CMSIS/Include/cmsis_gcc.h ****  * limitations under the License.
  23:Drivers/CMSIS/Include/cmsis_gcc.h ****  */
  24:Drivers/CMSIS/Include/cmsis_gcc.h **** 
  25:Drivers/CMSIS/Include/cmsis_gcc.h **** #ifndef __CMSIS_GCC_H
  26:Drivers/CMSIS/Include/cmsis_gcc.h **** #define __CMSIS_GCC_H
  27:Drivers/CMSIS/Include/cmsis_gcc.h **** 
  28:Drivers/CMSIS/Include/cmsis_gcc.h **** /* ignore some GCC warnings */
  29:Drivers/CMSIS/Include/cmsis_gcc.h **** #pragma GCC diagnostic push
  30:Drivers/CMSIS/Include/cmsis_gcc.h **** #pragma GCC diagnostic ignored "-Wsign-conversion"
  31:Drivers/CMSIS/Include/cmsis_gcc.h **** #pragma GCC diagnostic ignored "-Wconversion"
  32:Drivers/CMSIS/Include/cmsis_gcc.h **** #pragma GCC diagnostic ignored "-Wunused-parameter"
  33:Drivers/CMSIS/Include/cmsis_gcc.h **** 
  34:Drivers/CMSIS/Include/cmsis_gcc.h **** /* Fallback for __has_builtin */
  35:Drivers/CMSIS/Include/cmsis_gcc.h **** #ifndef __has_builtin
  36:Drivers/CMSIS/Include/cmsis_gcc.h ****   #define __has_builtin(x) (0)
  37:Drivers/CMSIS/Include/cmsis_gcc.h **** #endif
  38:Drivers/CMSIS/Include/cmsis_gcc.h **** 
  39:Drivers/CMSIS/Include/cmsis_gcc.h **** /* CMSIS compiler specific defines */
  40:Drivers/CMSIS/Include/cmsis_gcc.h **** #ifndef   __ASM
  41:Drivers/CMSIS/Include/cmsis_gcc.h ****   #define __ASM                                  __asm
  42:Drivers/CMSIS/Include/cmsis_gcc.h **** #endif
  43:Drivers/CMSIS/Include/cmsis_gcc.h **** #ifndef   __INLINE
  44:Drivers/CMSIS/Include/cmsis_gcc.h ****   #define __INLINE                               inline
  45:Drivers/CMSIS/Include/cmsis_gcc.h **** #endif
  46:Drivers/CMSIS/Include/cmsis_gcc.h **** #ifndef   __STATIC_INLINE
  47:Drivers/CMSIS/Include/cmsis_gcc.h ****   #define __STATIC_INLINE                        static inline
  48:Drivers/CMSIS/Include/cmsis_gcc.h **** #endif
  49:Drivers/CMSIS/Include/cmsis_gcc.h **** #ifndef   __STATIC_FORCEINLINE                 
  50:Drivers/CMSIS/Include/cmsis_gcc.h ****   #define __STATIC_FORCEINLINE                   __attribute__((always_inline)) static inline
  51:Drivers/CMSIS/Include/cmsis_gcc.h **** #endif                                           
  52:Drivers/CMSIS/Include/cmsis_gcc.h **** #ifndef   __NO_RETURN
  53:Drivers/CMSIS/Include/cmsis_gcc.h ****   #define __NO_RETURN                            __attribute__((__noreturn__))
  54:Drivers/CMSIS/Include/cmsis_gcc.h **** #endif
  55:Drivers/CMSIS/Include/cmsis_gcc.h **** #ifndef   __USED
  56:Drivers/CMSIS/Include/cmsis_gcc.h ****   #define __USED                                 __attribute__((used))
  57:Drivers/CMSIS/Include/cmsis_gcc.h **** #endif
  58:Drivers/CMSIS/Include/cmsis_gcc.h **** #ifndef   __WEAK
  59:Drivers/CMSIS/Include/cmsis_gcc.h ****   #define __WEAK                                 __attribute__((weak))
  60:Drivers/CMSIS/Include/cmsis_gcc.h **** #endif
  61:Drivers/CMSIS/Include/cmsis_gcc.h **** #ifndef   __PACKED
  62:Drivers/CMSIS/Include/cmsis_gcc.h ****   #define __PACKED                               __attribute__((packed, aligned(1)))
  63:Drivers/CMSIS/Include/cmsis_gcc.h **** #endif
  64:Drivers/CMSIS/Include/cmsis_gcc.h **** #ifndef   __PACKED_STRUCT
  65:Drivers/CMSIS/Include/cmsis_gcc.h ****   #define __PACKED_STRUCT                        struct __attribute__((packed, aligned(1)))
  66:Drivers/CMSIS/Include/cmsis_gcc.h **** #endif
  67:Drivers/CMSIS/Include/cmsis_gcc.h **** #ifndef   __PACKED_UNION
  68:Drivers/CMSIS/Include/cmsis_gcc.h ****   #define __PACKED_UNION                         union __attribute__((packed, aligned(1)))
  69:Drivers/CMSIS/Include/cmsis_gcc.h **** #endif
ARM GAS  C:\Users\Jose\AppData\Local\Temp\ccBDvfGc.s 			page 10


  70:Drivers/CMSIS/Include/cmsis_gcc.h **** #ifndef   __UNALIGNED_UINT32        /* deprecated */
  71:Drivers/CMSIS/Include/cmsis_gcc.h ****   #pragma GCC diagnostic push
  72:Drivers/CMSIS/Include/cmsis_gcc.h ****   #pragma GCC diagnostic ignored "-Wpacked"
  73:Drivers/CMSIS/Include/cmsis_gcc.h ****   #pragma GCC diagnostic ignored "-Wattributes"
  74:Drivers/CMSIS/Include/cmsis_gcc.h ****   struct __attribute__((packed)) T_UINT32 { uint32_t v; };
  75:Drivers/CMSIS/Include/cmsis_gcc.h ****   #pragma GCC diagnostic pop
  76:Drivers/CMSIS/Include/cmsis_gcc.h ****   #define __UNALIGNED_UINT32(x)                  (((struct T_UINT32 *)(x))->v)
  77:Drivers/CMSIS/Include/cmsis_gcc.h **** #endif
  78:Drivers/CMSIS/Include/cmsis_gcc.h **** #ifndef   __UNALIGNED_UINT16_WRITE
  79:Drivers/CMSIS/Include/cmsis_gcc.h ****   #pragma GCC diagnostic push
  80:Drivers/CMSIS/Include/cmsis_gcc.h ****   #pragma GCC diagnostic ignored "-Wpacked"
  81:Drivers/CMSIS/Include/cmsis_gcc.h ****   #pragma GCC diagnostic ignored "-Wattributes"
  82:Drivers/CMSIS/Include/cmsis_gcc.h ****   __PACKED_STRUCT T_UINT16_WRITE { uint16_t v; };
  83:Drivers/CMSIS/Include/cmsis_gcc.h ****   #pragma GCC diagnostic pop
  84:Drivers/CMSIS/Include/cmsis_gcc.h ****   #define __UNALIGNED_UINT16_WRITE(addr, val)    (void)((((struct T_UINT16_WRITE *)(void *)(addr))-
  85:Drivers/CMSIS/Include/cmsis_gcc.h **** #endif
  86:Drivers/CMSIS/Include/cmsis_gcc.h **** #ifndef   __UNALIGNED_UINT16_READ
  87:Drivers/CMSIS/Include/cmsis_gcc.h ****   #pragma GCC diagnostic push
  88:Drivers/CMSIS/Include/cmsis_gcc.h ****   #pragma GCC diagnostic ignored "-Wpacked"
  89:Drivers/CMSIS/Include/cmsis_gcc.h ****   #pragma GCC diagnostic ignored "-Wattributes"
  90:Drivers/CMSIS/Include/cmsis_gcc.h ****   __PACKED_STRUCT T_UINT16_READ { uint16_t v; };
  91:Drivers/CMSIS/Include/cmsis_gcc.h ****   #pragma GCC diagnostic pop
  92:Drivers/CMSIS/Include/cmsis_gcc.h ****   #define __UNALIGNED_UINT16_READ(addr)          (((const struct T_UINT16_READ *)(const void *)(add
  93:Drivers/CMSIS/Include/cmsis_gcc.h **** #endif
  94:Drivers/CMSIS/Include/cmsis_gcc.h **** #ifndef   __UNALIGNED_UINT32_WRITE
  95:Drivers/CMSIS/Include/cmsis_gcc.h ****   #pragma GCC diagnostic push
  96:Drivers/CMSIS/Include/cmsis_gcc.h ****   #pragma GCC diagnostic ignored "-Wpacked"
  97:Drivers/CMSIS/Include/cmsis_gcc.h ****   #pragma GCC diagnostic ignored "-Wattributes"
  98:Drivers/CMSIS/Include/cmsis_gcc.h ****   __PACKED_STRUCT T_UINT32_WRITE { uint32_t v; };
  99:Drivers/CMSIS/Include/cmsis_gcc.h ****   #pragma GCC diagnostic pop
 100:Drivers/CMSIS/Include/cmsis_gcc.h ****   #define __UNALIGNED_UINT32_WRITE(addr, val)    (void)((((struct T_UINT32_WRITE *)(void *)(addr))-
 101:Drivers/CMSIS/Include/cmsis_gcc.h **** #endif
 102:Drivers/CMSIS/Include/cmsis_gcc.h **** #ifndef   __UNALIGNED_UINT32_READ
 103:Drivers/CMSIS/Include/cmsis_gcc.h ****   #pragma GCC diagnostic push
 104:Drivers/CMSIS/Include/cmsis_gcc.h ****   #pragma GCC diagnostic ignored "-Wpacked"
 105:Drivers/CMSIS/Include/cmsis_gcc.h ****   #pragma GCC diagnostic ignored "-Wattributes"
 106:Drivers/CMSIS/Include/cmsis_gcc.h ****   __PACKED_STRUCT T_UINT32_READ { uint32_t v; };
 107:Drivers/CMSIS/Include/cmsis_gcc.h ****   #pragma GCC diagnostic pop
 108:Drivers/CMSIS/Include/cmsis_gcc.h ****   #define __UNALIGNED_UINT32_READ(addr)          (((const struct T_UINT32_READ *)(const void *)(add
 109:Drivers/CMSIS/Include/cmsis_gcc.h **** #endif
 110:Drivers/CMSIS/Include/cmsis_gcc.h **** #ifndef   __ALIGNED
 111:Drivers/CMSIS/Include/cmsis_gcc.h ****   #define __ALIGNED(x)                           __attribute__((aligned(x)))
 112:Drivers/CMSIS/Include/cmsis_gcc.h **** #endif
 113:Drivers/CMSIS/Include/cmsis_gcc.h **** #ifndef   __RESTRICT
 114:Drivers/CMSIS/Include/cmsis_gcc.h ****   #define __RESTRICT                             __restrict
 115:Drivers/CMSIS/Include/cmsis_gcc.h **** #endif
 116:Drivers/CMSIS/Include/cmsis_gcc.h **** 
 117:Drivers/CMSIS/Include/cmsis_gcc.h **** 
 118:Drivers/CMSIS/Include/cmsis_gcc.h **** /* ###########################  Core Function Access  ########################### */
 119:Drivers/CMSIS/Include/cmsis_gcc.h **** /** \ingroup  CMSIS_Core_FunctionInterface
 120:Drivers/CMSIS/Include/cmsis_gcc.h ****     \defgroup CMSIS_Core_RegAccFunctions CMSIS Core Register Access Functions
 121:Drivers/CMSIS/Include/cmsis_gcc.h ****   @{
 122:Drivers/CMSIS/Include/cmsis_gcc.h ****  */
 123:Drivers/CMSIS/Include/cmsis_gcc.h **** 
 124:Drivers/CMSIS/Include/cmsis_gcc.h **** /**
 125:Drivers/CMSIS/Include/cmsis_gcc.h ****   \brief   Enable IRQ Interrupts
 126:Drivers/CMSIS/Include/cmsis_gcc.h ****   \details Enables IRQ interrupts by clearing the I-bit in the CPSR.
ARM GAS  C:\Users\Jose\AppData\Local\Temp\ccBDvfGc.s 			page 11


 127:Drivers/CMSIS/Include/cmsis_gcc.h ****            Can only be executed in Privileged modes.
 128:Drivers/CMSIS/Include/cmsis_gcc.h ****  */
 129:Drivers/CMSIS/Include/cmsis_gcc.h **** __STATIC_FORCEINLINE void __enable_irq(void)
 130:Drivers/CMSIS/Include/cmsis_gcc.h **** {
 131:Drivers/CMSIS/Include/cmsis_gcc.h ****   __ASM volatile ("cpsie i" : : : "memory");
 132:Drivers/CMSIS/Include/cmsis_gcc.h **** }
 133:Drivers/CMSIS/Include/cmsis_gcc.h **** 
 134:Drivers/CMSIS/Include/cmsis_gcc.h **** 
 135:Drivers/CMSIS/Include/cmsis_gcc.h **** /**
 136:Drivers/CMSIS/Include/cmsis_gcc.h ****   \brief   Disable IRQ Interrupts
 137:Drivers/CMSIS/Include/cmsis_gcc.h ****   \details Disables IRQ interrupts by setting the I-bit in the CPSR.
 138:Drivers/CMSIS/Include/cmsis_gcc.h ****            Can only be executed in Privileged modes.
 139:Drivers/CMSIS/Include/cmsis_gcc.h ****  */
 140:Drivers/CMSIS/Include/cmsis_gcc.h **** __STATIC_FORCEINLINE void __disable_irq(void)
 190              		.loc 2 140 27 view .LVU47
 191              	.LBB9:
 141:Drivers/CMSIS/Include/cmsis_gcc.h **** {
 142:Drivers/CMSIS/Include/cmsis_gcc.h ****   __ASM volatile ("cpsid i" : : : "memory");
 192              		.loc 2 142 3 view .LVU48
 193              		.syntax unified
 194              	@ 142 "Drivers/CMSIS/Include/cmsis_gcc.h" 1
 195 0000 72B6     		cpsid i
 196              	@ 0 "" 2
 197              		.thumb
 198              		.syntax unified
 199              	.L6:
 200              	.LBE9:
 201              	.LBE8:
 259:Core/Src/main.c ****   while (1)
 202              		.loc 1 259 3 discriminator 1 view .LVU49
 260:Core/Src/main.c ****   {
 261:Core/Src/main.c ****   }
 203              		.loc 1 261 3 discriminator 1 view .LVU50
 259:Core/Src/main.c ****   while (1)
 204              		.loc 1 259 9 discriminator 1 view .LVU51
 205 0002 FEE7     		b	.L6
 206              		.cfi_endproc
 207              	.LFE135:
 209              		.section	.text.MX_CRC_Init,"ax",%progbits
 210              		.align	1
 211              		.syntax unified
 212              		.thumb
 213              		.thumb_func
 215              	MX_CRC_Init:
 216              	.LFB132:
 160:Core/Src/main.c **** 
 217              		.loc 1 160 1 view -0
 218              		.cfi_startproc
 219              		@ args = 0, pretend = 0, frame = 0
 220              		@ frame_needed = 0, uses_anonymous_args = 0
 221 0000 08B5     		push	{r3, lr}
 222              	.LCFI3:
 223              		.cfi_def_cfa_offset 8
 224              		.cfi_offset 3, -8
 225              		.cfi_offset 14, -4
 169:Core/Src/main.c ****   if (HAL_CRC_Init(&hcrc) != HAL_OK)
 226              		.loc 1 169 3 view .LVU53
ARM GAS  C:\Users\Jose\AppData\Local\Temp\ccBDvfGc.s 			page 12


 169:Core/Src/main.c ****   if (HAL_CRC_Init(&hcrc) != HAL_OK)
 227              		.loc 1 169 17 is_stmt 0 view .LVU54
 228 0002 0448     		ldr	r0, .L11
 229 0004 044B     		ldr	r3, .L11+4
 230 0006 0360     		str	r3, [r0]
 170:Core/Src/main.c ****   {
 231              		.loc 1 170 3 is_stmt 1 view .LVU55
 170:Core/Src/main.c ****   {
 232              		.loc 1 170 7 is_stmt 0 view .LVU56
 233 0008 FFF7FEFF 		bl	HAL_CRC_Init
 234              	.LVL3:
 170:Core/Src/main.c ****   {
 235              		.loc 1 170 6 view .LVU57
 236 000c 00B9     		cbnz	r0, .L10
 178:Core/Src/main.c **** 
 237              		.loc 1 178 1 view .LVU58
 238 000e 08BD     		pop	{r3, pc}
 239              	.L10:
 172:Core/Src/main.c ****   }
 240              		.loc 1 172 5 is_stmt 1 view .LVU59
 241 0010 FFF7FEFF 		bl	Error_Handler
 242              	.LVL4:
 243              	.L12:
 244              		.align	2
 245              	.L11:
 246 0014 00000000 		.word	hcrc
 247 0018 00300240 		.word	1073885184
 248              		.cfi_endproc
 249              	.LFE132:
 251              		.section	.text.MX_USART2_UART_Init,"ax",%progbits
 252              		.align	1
 253              		.syntax unified
 254              		.thumb
 255              		.thumb_func
 257              	MX_USART2_UART_Init:
 258              	.LFB133:
 186:Core/Src/main.c **** 
 259              		.loc 1 186 1 view -0
 260              		.cfi_startproc
 261              		@ args = 0, pretend = 0, frame = 0
 262              		@ frame_needed = 0, uses_anonymous_args = 0
 263 0000 08B5     		push	{r3, lr}
 264              	.LCFI4:
 265              		.cfi_def_cfa_offset 8
 266              		.cfi_offset 3, -8
 267              		.cfi_offset 14, -4
 195:Core/Src/main.c ****   huart2.Init.BaudRate = 115200;
 268              		.loc 1 195 3 view .LVU61
 195:Core/Src/main.c ****   huart2.Init.BaudRate = 115200;
 269              		.loc 1 195 19 is_stmt 0 view .LVU62
 270 0002 0A48     		ldr	r0, .L17
 271 0004 0A4B     		ldr	r3, .L17+4
 272 0006 0360     		str	r3, [r0]
 196:Core/Src/main.c ****   huart2.Init.WordLength = UART_WORDLENGTH_8B;
 273              		.loc 1 196 3 is_stmt 1 view .LVU63
 196:Core/Src/main.c ****   huart2.Init.WordLength = UART_WORDLENGTH_8B;
 274              		.loc 1 196 24 is_stmt 0 view .LVU64
ARM GAS  C:\Users\Jose\AppData\Local\Temp\ccBDvfGc.s 			page 13


 275 0008 4FF4E133 		mov	r3, #115200
 276 000c 4360     		str	r3, [r0, #4]
 197:Core/Src/main.c ****   huart2.Init.StopBits = UART_STOPBITS_1;
 277              		.loc 1 197 3 is_stmt 1 view .LVU65
 197:Core/Src/main.c ****   huart2.Init.StopBits = UART_STOPBITS_1;
 278              		.loc 1 197 26 is_stmt 0 view .LVU66
 279 000e 0023     		movs	r3, #0
 280 0010 8360     		str	r3, [r0, #8]
 198:Core/Src/main.c ****   huart2.Init.Parity = UART_PARITY_NONE;
 281              		.loc 1 198 3 is_stmt 1 view .LVU67
 198:Core/Src/main.c ****   huart2.Init.Parity = UART_PARITY_NONE;
 282              		.loc 1 198 24 is_stmt 0 view .LVU68
 283 0012 C360     		str	r3, [r0, #12]
 199:Core/Src/main.c ****   huart2.Init.Mode = UART_MODE_TX_RX;
 284              		.loc 1 199 3 is_stmt 1 view .LVU69
 199:Core/Src/main.c ****   huart2.Init.Mode = UART_MODE_TX_RX;
 285              		.loc 1 199 22 is_stmt 0 view .LVU70
 286 0014 0361     		str	r3, [r0, #16]
 200:Core/Src/main.c ****   huart2.Init.HwFlowCtl = UART_HWCONTROL_NONE;
 287              		.loc 1 200 3 is_stmt 1 view .LVU71
 200:Core/Src/main.c ****   huart2.Init.HwFlowCtl = UART_HWCONTROL_NONE;
 288              		.loc 1 200 20 is_stmt 0 view .LVU72
 289 0016 0C22     		movs	r2, #12
 290 0018 4261     		str	r2, [r0, #20]
 201:Core/Src/main.c ****   huart2.Init.OverSampling = UART_OVERSAMPLING_16;
 291              		.loc 1 201 3 is_stmt 1 view .LVU73
 201:Core/Src/main.c ****   huart2.Init.OverSampling = UART_OVERSAMPLING_16;
 292              		.loc 1 201 25 is_stmt 0 view .LVU74
 293 001a 8361     		str	r3, [r0, #24]
 202:Core/Src/main.c ****   if (HAL_UART_Init(&huart2) != HAL_OK)
 294              		.loc 1 202 3 is_stmt 1 view .LVU75
 202:Core/Src/main.c ****   if (HAL_UART_Init(&huart2) != HAL_OK)
 295              		.loc 1 202 28 is_stmt 0 view .LVU76
 296 001c C361     		str	r3, [r0, #28]
 203:Core/Src/main.c ****   {
 297              		.loc 1 203 3 is_stmt 1 view .LVU77
 203:Core/Src/main.c ****   {
 298              		.loc 1 203 7 is_stmt 0 view .LVU78
 299 001e FFF7FEFF 		bl	HAL_UART_Init
 300              	.LVL5:
 203:Core/Src/main.c ****   {
 301              		.loc 1 203 6 view .LVU79
 302 0022 00B9     		cbnz	r0, .L16
 211:Core/Src/main.c **** 
 303              		.loc 1 211 1 view .LVU80
 304 0024 08BD     		pop	{r3, pc}
 305              	.L16:
 205:Core/Src/main.c ****   }
 306              		.loc 1 205 5 is_stmt 1 view .LVU81
 307 0026 FFF7FEFF 		bl	Error_Handler
 308              	.LVL6:
 309              	.L18:
 310 002a 00BF     		.align	2
 311              	.L17:
 312 002c 00000000 		.word	huart2
 313 0030 00440040 		.word	1073759232
 314              		.cfi_endproc
ARM GAS  C:\Users\Jose\AppData\Local\Temp\ccBDvfGc.s 			page 14


 315              	.LFE133:
 317              		.section	.text.SystemClock_Config,"ax",%progbits
 318              		.align	1
 319              		.global	SystemClock_Config
 320              		.syntax unified
 321              		.thumb
 322              		.thumb_func
 324              	SystemClock_Config:
 325              	.LFB131:
 113:Core/Src/main.c ****   RCC_OscInitTypeDef RCC_OscInitStruct = {0};
 326              		.loc 1 113 1 view -0
 327              		.cfi_startproc
 328              		@ args = 0, pretend = 0, frame = 80
 329              		@ frame_needed = 0, uses_anonymous_args = 0
 330 0000 00B5     		push	{lr}
 331              	.LCFI5:
 332              		.cfi_def_cfa_offset 4
 333              		.cfi_offset 14, -4
 334 0002 95B0     		sub	sp, sp, #84
 335              	.LCFI6:
 336              		.cfi_def_cfa_offset 88
 114:Core/Src/main.c ****   RCC_ClkInitTypeDef RCC_ClkInitStruct = {0};
 337              		.loc 1 114 3 view .LVU83
 114:Core/Src/main.c ****   RCC_ClkInitTypeDef RCC_ClkInitStruct = {0};
 338              		.loc 1 114 22 is_stmt 0 view .LVU84
 339 0004 3022     		movs	r2, #48
 340 0006 0021     		movs	r1, #0
 341 0008 08A8     		add	r0, sp, #32
 342 000a FFF7FEFF 		bl	memset
 343              	.LVL7:
 115:Core/Src/main.c **** 
 344              		.loc 1 115 3 is_stmt 1 view .LVU85
 115:Core/Src/main.c **** 
 345              		.loc 1 115 22 is_stmt 0 view .LVU86
 346 000e 0023     		movs	r3, #0
 347 0010 0393     		str	r3, [sp, #12]
 348 0012 0493     		str	r3, [sp, #16]
 349 0014 0593     		str	r3, [sp, #20]
 350 0016 0693     		str	r3, [sp, #24]
 351 0018 0793     		str	r3, [sp, #28]
 119:Core/Src/main.c ****   __HAL_PWR_VOLTAGESCALING_CONFIG(PWR_REGULATOR_VOLTAGE_SCALE2);
 352              		.loc 1 119 3 is_stmt 1 view .LVU87
 353              	.LBB10:
 119:Core/Src/main.c ****   __HAL_PWR_VOLTAGESCALING_CONFIG(PWR_REGULATOR_VOLTAGE_SCALE2);
 354              		.loc 1 119 3 view .LVU88
 355 001a 0193     		str	r3, [sp, #4]
 119:Core/Src/main.c ****   __HAL_PWR_VOLTAGESCALING_CONFIG(PWR_REGULATOR_VOLTAGE_SCALE2);
 356              		.loc 1 119 3 view .LVU89
 357 001c 1F4A     		ldr	r2, .L25
 358 001e 116C     		ldr	r1, [r2, #64]
 359 0020 41F08051 		orr	r1, r1, #268435456
 360 0024 1164     		str	r1, [r2, #64]
 119:Core/Src/main.c ****   __HAL_PWR_VOLTAGESCALING_CONFIG(PWR_REGULATOR_VOLTAGE_SCALE2);
 361              		.loc 1 119 3 view .LVU90
 362 0026 126C     		ldr	r2, [r2, #64]
 363 0028 02F08052 		and	r2, r2, #268435456
 364 002c 0192     		str	r2, [sp, #4]
ARM GAS  C:\Users\Jose\AppData\Local\Temp\ccBDvfGc.s 			page 15


 119:Core/Src/main.c ****   __HAL_PWR_VOLTAGESCALING_CONFIG(PWR_REGULATOR_VOLTAGE_SCALE2);
 365              		.loc 1 119 3 view .LVU91
 366 002e 019A     		ldr	r2, [sp, #4]
 367              	.LBE10:
 119:Core/Src/main.c ****   __HAL_PWR_VOLTAGESCALING_CONFIG(PWR_REGULATOR_VOLTAGE_SCALE2);
 368              		.loc 1 119 3 view .LVU92
 120:Core/Src/main.c **** 
 369              		.loc 1 120 3 view .LVU93
 370              	.LBB11:
 120:Core/Src/main.c **** 
 371              		.loc 1 120 3 view .LVU94
 372 0030 0293     		str	r3, [sp, #8]
 120:Core/Src/main.c **** 
 373              		.loc 1 120 3 view .LVU95
 374 0032 1B49     		ldr	r1, .L25+4
 375 0034 0A68     		ldr	r2, [r1]
 376 0036 22F44042 		bic	r2, r2, #49152
 377 003a 42F40042 		orr	r2, r2, #32768
 378 003e 0A60     		str	r2, [r1]
 120:Core/Src/main.c **** 
 379              		.loc 1 120 3 view .LVU96
 380 0040 0A68     		ldr	r2, [r1]
 381 0042 02F44042 		and	r2, r2, #49152
 382 0046 0292     		str	r2, [sp, #8]
 120:Core/Src/main.c **** 
 383              		.loc 1 120 3 view .LVU97
 384 0048 029A     		ldr	r2, [sp, #8]
 385              	.LBE11:
 120:Core/Src/main.c **** 
 386              		.loc 1 120 3 view .LVU98
 125:Core/Src/main.c ****   RCC_OscInitStruct.HSIState = RCC_HSI_ON;
 387              		.loc 1 125 3 view .LVU99
 125:Core/Src/main.c ****   RCC_OscInitStruct.HSIState = RCC_HSI_ON;
 388              		.loc 1 125 36 is_stmt 0 view .LVU100
 389 004a 0222     		movs	r2, #2
 390 004c 0892     		str	r2, [sp, #32]
 126:Core/Src/main.c ****   RCC_OscInitStruct.HSICalibrationValue = RCC_HSICALIBRATION_DEFAULT;
 391              		.loc 1 126 3 is_stmt 1 view .LVU101
 126:Core/Src/main.c ****   RCC_OscInitStruct.HSICalibrationValue = RCC_HSICALIBRATION_DEFAULT;
 392              		.loc 1 126 30 is_stmt 0 view .LVU102
 393 004e 0121     		movs	r1, #1
 394 0050 0B91     		str	r1, [sp, #44]
 127:Core/Src/main.c ****   RCC_OscInitStruct.PLL.PLLState = RCC_PLL_ON;
 395              		.loc 1 127 3 is_stmt 1 view .LVU103
 127:Core/Src/main.c ****   RCC_OscInitStruct.PLL.PLLState = RCC_PLL_ON;
 396              		.loc 1 127 41 is_stmt 0 view .LVU104
 397 0052 1021     		movs	r1, #16
 398 0054 0C91     		str	r1, [sp, #48]
 128:Core/Src/main.c ****   RCC_OscInitStruct.PLL.PLLSource = RCC_PLLSOURCE_HSI;
 399              		.loc 1 128 3 is_stmt 1 view .LVU105
 128:Core/Src/main.c ****   RCC_OscInitStruct.PLL.PLLSource = RCC_PLLSOURCE_HSI;
 400              		.loc 1 128 34 is_stmt 0 view .LVU106
 401 0056 0E92     		str	r2, [sp, #56]
 129:Core/Src/main.c ****   RCC_OscInitStruct.PLL.PLLM = 8;
 402              		.loc 1 129 3 is_stmt 1 view .LVU107
 129:Core/Src/main.c ****   RCC_OscInitStruct.PLL.PLLM = 8;
 403              		.loc 1 129 35 is_stmt 0 view .LVU108
ARM GAS  C:\Users\Jose\AppData\Local\Temp\ccBDvfGc.s 			page 16


 404 0058 0F93     		str	r3, [sp, #60]
 130:Core/Src/main.c ****   RCC_OscInitStruct.PLL.PLLN = 84;
 405              		.loc 1 130 3 is_stmt 1 view .LVU109
 130:Core/Src/main.c ****   RCC_OscInitStruct.PLL.PLLN = 84;
 406              		.loc 1 130 30 is_stmt 0 view .LVU110
 407 005a 0823     		movs	r3, #8
 408 005c 1093     		str	r3, [sp, #64]
 131:Core/Src/main.c ****   RCC_OscInitStruct.PLL.PLLP = RCC_PLLP_DIV2;
 409              		.loc 1 131 3 is_stmt 1 view .LVU111
 131:Core/Src/main.c ****   RCC_OscInitStruct.PLL.PLLP = RCC_PLLP_DIV2;
 410              		.loc 1 131 30 is_stmt 0 view .LVU112
 411 005e 5423     		movs	r3, #84
 412 0060 1193     		str	r3, [sp, #68]
 132:Core/Src/main.c ****   RCC_OscInitStruct.PLL.PLLQ = 7;
 413              		.loc 1 132 3 is_stmt 1 view .LVU113
 132:Core/Src/main.c ****   RCC_OscInitStruct.PLL.PLLQ = 7;
 414              		.loc 1 132 30 is_stmt 0 view .LVU114
 415 0062 1292     		str	r2, [sp, #72]
 133:Core/Src/main.c ****   if (HAL_RCC_OscConfig(&RCC_OscInitStruct) != HAL_OK)
 416              		.loc 1 133 3 is_stmt 1 view .LVU115
 133:Core/Src/main.c ****   if (HAL_RCC_OscConfig(&RCC_OscInitStruct) != HAL_OK)
 417              		.loc 1 133 30 is_stmt 0 view .LVU116
 418 0064 0723     		movs	r3, #7
 419 0066 1393     		str	r3, [sp, #76]
 134:Core/Src/main.c ****   {
 420              		.loc 1 134 3 is_stmt 1 view .LVU117
 134:Core/Src/main.c ****   {
 421              		.loc 1 134 7 is_stmt 0 view .LVU118
 422 0068 08A8     		add	r0, sp, #32
 423 006a FFF7FEFF 		bl	HAL_RCC_OscConfig
 424              	.LVL8:
 134:Core/Src/main.c ****   {
 425              		.loc 1 134 6 view .LVU119
 426 006e 80B9     		cbnz	r0, .L23
 141:Core/Src/main.c ****                               |RCC_CLOCKTYPE_PCLK1|RCC_CLOCKTYPE_PCLK2;
 427              		.loc 1 141 3 is_stmt 1 view .LVU120
 141:Core/Src/main.c ****                               |RCC_CLOCKTYPE_PCLK1|RCC_CLOCKTYPE_PCLK2;
 428              		.loc 1 141 31 is_stmt 0 view .LVU121
 429 0070 0F23     		movs	r3, #15
 430 0072 0393     		str	r3, [sp, #12]
 143:Core/Src/main.c ****   RCC_ClkInitStruct.AHBCLKDivider = RCC_SYSCLK_DIV1;
 431              		.loc 1 143 3 is_stmt 1 view .LVU122
 143:Core/Src/main.c ****   RCC_ClkInitStruct.AHBCLKDivider = RCC_SYSCLK_DIV1;
 432              		.loc 1 143 34 is_stmt 0 view .LVU123
 433 0074 0221     		movs	r1, #2
 434 0076 0491     		str	r1, [sp, #16]
 144:Core/Src/main.c ****   RCC_ClkInitStruct.APB1CLKDivider = RCC_HCLK_DIV2;
 435              		.loc 1 144 3 is_stmt 1 view .LVU124
 144:Core/Src/main.c ****   RCC_ClkInitStruct.APB1CLKDivider = RCC_HCLK_DIV2;
 436              		.loc 1 144 35 is_stmt 0 view .LVU125
 437 0078 0023     		movs	r3, #0
 438 007a 0593     		str	r3, [sp, #20]
 145:Core/Src/main.c ****   RCC_ClkInitStruct.APB2CLKDivider = RCC_HCLK_DIV1;
 439              		.loc 1 145 3 is_stmt 1 view .LVU126
 145:Core/Src/main.c ****   RCC_ClkInitStruct.APB2CLKDivider = RCC_HCLK_DIV1;
 440              		.loc 1 145 36 is_stmt 0 view .LVU127
 441 007c 4FF48052 		mov	r2, #4096
ARM GAS  C:\Users\Jose\AppData\Local\Temp\ccBDvfGc.s 			page 17


 442 0080 0692     		str	r2, [sp, #24]
 146:Core/Src/main.c **** 
 443              		.loc 1 146 3 is_stmt 1 view .LVU128
 146:Core/Src/main.c **** 
 444              		.loc 1 146 36 is_stmt 0 view .LVU129
 445 0082 0793     		str	r3, [sp, #28]
 148:Core/Src/main.c ****   {
 446              		.loc 1 148 3 is_stmt 1 view .LVU130
 148:Core/Src/main.c ****   {
 447              		.loc 1 148 7 is_stmt 0 view .LVU131
 448 0084 03A8     		add	r0, sp, #12
 449 0086 FFF7FEFF 		bl	HAL_RCC_ClockConfig
 450              	.LVL9:
 148:Core/Src/main.c ****   {
 451              		.loc 1 148 6 view .LVU132
 452 008a 20B9     		cbnz	r0, .L24
 152:Core/Src/main.c **** 
 453              		.loc 1 152 1 view .LVU133
 454 008c 15B0     		add	sp, sp, #84
 455              	.LCFI7:
 456              		.cfi_remember_state
 457              		.cfi_def_cfa_offset 4
 458              		@ sp needed
 459 008e 5DF804FB 		ldr	pc, [sp], #4
 460              	.L23:
 461              	.LCFI8:
 462              		.cfi_restore_state
 136:Core/Src/main.c ****   }
 463              		.loc 1 136 5 is_stmt 1 view .LVU134
 464 0092 FFF7FEFF 		bl	Error_Handler
 465              	.LVL10:
 466              	.L24:
 150:Core/Src/main.c ****   }
 467              		.loc 1 150 5 view .LVU135
 468 0096 FFF7FEFF 		bl	Error_Handler
 469              	.LVL11:
 470              	.L26:
 471 009a 00BF     		.align	2
 472              	.L25:
 473 009c 00380240 		.word	1073887232
 474 00a0 00700040 		.word	1073770496
 475              		.cfi_endproc
 476              	.LFE131:
 478              		.section	.text.main,"ax",%progbits
 479              		.align	1
 480              		.global	main
 481              		.syntax unified
 482              		.thumb
 483              		.thumb_func
 485              	main:
 486              	.LFB130:
  69:Core/Src/main.c ****   /* USER CODE BEGIN 1 */
 487              		.loc 1 69 1 view -0
 488              		.cfi_startproc
 489              		@ Volatile: function does not return.
 490              		@ args = 0, pretend = 0, frame = 0
 491              		@ frame_needed = 0, uses_anonymous_args = 0
ARM GAS  C:\Users\Jose\AppData\Local\Temp\ccBDvfGc.s 			page 18


 492 0000 08B5     		push	{r3, lr}
 493              	.LCFI9:
 494              		.cfi_def_cfa_offset 8
 495              		.cfi_offset 3, -8
 496              		.cfi_offset 14, -4
  77:Core/Src/main.c **** 
 497              		.loc 1 77 3 view .LVU137
 498 0002 FFF7FEFF 		bl	HAL_Init
 499              	.LVL12:
  84:Core/Src/main.c **** 
 500              		.loc 1 84 3 view .LVU138
 501 0006 FFF7FEFF 		bl	SystemClock_Config
 502              	.LVL13:
  91:Core/Src/main.c ****   MX_CRC_Init();
 503              		.loc 1 91 3 view .LVU139
 504 000a FFF7FEFF 		bl	MX_GPIO_Init
 505              	.LVL14:
  92:Core/Src/main.c ****   MX_USART2_UART_Init();
 506              		.loc 1 92 3 view .LVU140
 507 000e FFF7FEFF 		bl	MX_CRC_Init
 508              	.LVL15:
  93:Core/Src/main.c ****   /* USER CODE BEGIN 2 */
 509              		.loc 1 93 3 view .LVU141
 510 0012 FFF7FEFF 		bl	MX_USART2_UART_Init
 511              	.LVL16:
 512              	.L28:
 100:Core/Src/main.c ****   {
 513              		.loc 1 100 3 discriminator 1 view .LVU142
 102:Core/Src/main.c ****     HAL_Delay(100);
 514              		.loc 1 102 5 discriminator 1 view .LVU143
 515 0016 2021     		movs	r1, #32
 516 0018 0348     		ldr	r0, .L30
 517 001a FFF7FEFF 		bl	HAL_GPIO_TogglePin
 518              	.LVL17:
 103:Core/Src/main.c ****   }
 519              		.loc 1 103 5 discriminator 1 view .LVU144
 520 001e 6420     		movs	r0, #100
 521 0020 FFF7FEFF 		bl	HAL_Delay
 522              	.LVL18:
 100:Core/Src/main.c ****   {
 523              		.loc 1 100 9 discriminator 1 view .LVU145
 524 0024 F7E7     		b	.L28
 525              	.L31:
 526 0026 00BF     		.align	2
 527              	.L30:
 528 0028 00000240 		.word	1073872896
 529              		.cfi_endproc
 530              	.LFE130:
 532              		.global	huart2
 533              		.section	.bss.huart2,"aw",%nobits
 534              		.align	2
 537              	huart2:
 538 0000 00000000 		.space	68
 538      00000000 
 538      00000000 
 538      00000000 
 538      00000000 
ARM GAS  C:\Users\Jose\AppData\Local\Temp\ccBDvfGc.s 			page 19


 539              		.global	hcrc
 540              		.section	.bss.hcrc,"aw",%nobits
 541              		.align	2
 544              	hcrc:
 545 0000 00000000 		.space	8
 545      00000000 
 546              		.text
 547              	.Letext0:
 548              		.file 3 "c:\\embtoolchainproj\\tools\\arm-gnu-toolchain-12.2.rel1-mingw-w64-i686-arm-none-eabi\\ar
 549              		.file 4 "c:\\embtoolchainproj\\tools\\arm-gnu-toolchain-12.2.rel1-mingw-w64-i686-arm-none-eabi\\ar
 550              		.file 5 "Drivers/CMSIS/Device/ST/STM32F4xx/Include/stm32f401xe.h"
 551              		.file 6 "Drivers/STM32F4xx_HAL_Driver/Inc/stm32f4xx_hal_def.h"
 552              		.file 7 "Drivers/STM32F4xx_HAL_Driver/Inc/stm32f4xx_hal_rcc_ex.h"
 553              		.file 8 "Drivers/STM32F4xx_HAL_Driver/Inc/stm32f4xx_hal_rcc.h"
 554              		.file 9 "Drivers/STM32F4xx_HAL_Driver/Inc/stm32f4xx_hal_gpio.h"
 555              		.file 10 "Drivers/STM32F4xx_HAL_Driver/Inc/stm32f4xx_hal_dma.h"
 556              		.file 11 "Drivers/STM32F4xx_HAL_Driver/Inc/stm32f4xx_hal_crc.h"
 557              		.file 12 "Drivers/STM32F4xx_HAL_Driver/Inc/stm32f4xx_hal_uart.h"
 558              		.file 13 "Drivers/STM32F4xx_HAL_Driver/Inc/stm32f4xx_hal.h"
 559              		.file 14 "<built-in>"
ARM GAS  C:\Users\Jose\AppData\Local\Temp\ccBDvfGc.s 			page 20

